target datalayout = "e-m:e-p270:32:32-p271:32:32-p272:64:64-i64:64-i128:128-f80:128-n8:16:32:64-S128"
target triple = "x86_64-pc-linux-gnu"

@.str.5 = private unnamed_addr constant [33 x i8] c"../openssl/test/quic_wire_test.c\00", align 1
@.str.55 = private unnamed_addr constant [7 x i8] c"0x1234\00", align 1
@.str.81 = private unnamed_addr constant [7 x i8] c"0x9781\00", align 1
@.str.84 = private unnamed_addr constant [66 x i8] c"ossl_quic_wire_peek_frame_header(pkt, &frame_type_1, &is_minimal)\00", align 1
@.str.85 = private unnamed_addr constant [11 x i8] c"success_if\00", align 1
@.str.86 = private unnamed_addr constant [26 x i8] c"!success_if || is_minimal\00", align 1
@.str.87 = private unnamed_addr constant [61 x i8] c"ossl_quic_wire_decode_frame_max_streams(pkt, &max_streams_1)\00", align 1
@.str.88 = private unnamed_addr constant [66 x i8] c"ossl_quic_wire_peek_frame_header(pkt, &frame_type_2, &is_minimal)\00", align 1
@.str.89 = private unnamed_addr constant [61 x i8] c"ossl_quic_wire_decode_frame_max_streams(pkt, &max_streams_2)\00", align 1
@.str.90 = private unnamed_addr constant [13 x i8] c"frame_type_1\00", align 1
@.str.91 = private unnamed_addr constant [38 x i8] c"OSSL_QUIC_FRAME_TYPE_MAX_STREAMS_BIDI\00", align 1
@.str.92 = private unnamed_addr constant [14 x i8] c"max_streams_1\00", align 1
@.str.93 = private unnamed_addr constant [13 x i8] c"frame_type_2\00", align 1
@.str.94 = private unnamed_addr constant [37 x i8] c"OSSL_QUIC_FRAME_TYPE_MAX_STREAMS_UNI\00", align 1
@.str.95 = private unnamed_addr constant [14 x i8] c"max_streams_2\00", align 1

; Function Attrs: nounwind uwtable
define internal i32 @encode_case_12_dec(ptr noundef %0, i64 noundef %1) #0 {
  %3 = alloca i32, align 4
  %4 = alloca ptr, align 8
  %5 = alloca i64, align 8
  %6 = alloca i64, align 8
  %7 = alloca i64, align 8
  %8 = alloca i64, align 8
  %9 = alloca i64, align 8
  %10 = alloca i32, align 4
  %11 = alloca i32, align 4
  %12 = alloca i32, align 4
  store ptr %0, ptr %4, align 8, !tbaa !40
  store i64 %1, ptr %5, align 8, !tbaa !19
  call void @llvm.lifetime.start.p0(i64 8, ptr %6) #5
  store i64 0, ptr %6, align 8, !tbaa !19
  call void @llvm.lifetime.start.p0(i64 8, ptr %7) #5
  store i64 0, ptr %7, align 8, !tbaa !19
  call void @llvm.lifetime.start.p0(i64 8, ptr %8) #5
  store i64 0, ptr %8, align 8, !tbaa !19
  call void @llvm.lifetime.start.p0(i64 8, ptr %9) #5
  store i64 0, ptr %9, align 8, !tbaa !19
  call void @llvm.lifetime.start.p0(i64 4, ptr %10) #5
  store i32 1, ptr %10, align 4, !tbaa !4
  call void @llvm.lifetime.start.p0(i64 4, ptr %11) #5
  %13 = load i64, ptr %5, align 8, !tbaa !19
  %14 = icmp slt i64 %13, 0
  br i1 %14, label %18, label %15

15:                                               ; preds = %2
  %16 = load i64, ptr %5, align 8, !tbaa !19
  %17 = icmp sge i64 %16, 1
  br label %18

18:                                               ; preds = %15, %2
  %19 = phi i1 [ true, %2 ], [ %17, %15 ]
  %20 = zext i1 %19 to i32
  store i32 %20, ptr %11, align 4, !tbaa !4
  %21 = load ptr, ptr %4, align 8, !tbaa !40
  %22 = call i32 @ossl_quic_wire_peek_frame_header(ptr noundef %21, ptr noundef %8, ptr noundef %10)
  %23 = load i32, ptr %11, align 4, !tbaa !4
  %24 = call i32 @test_int_eq(ptr noundef @.str.5, i32 noundef 541, ptr noundef @.str.84, ptr noundef @.str.85, i32 noundef %22, i32 noundef %23)
  %25 = icmp ne i32 %24, 0
  br i1 %25, label %27, label %26

26:                                               ; preds = %18
  store i32 0, ptr %3, align 4
  store i32 1, ptr %12, align 4
  br label %140

27:                                               ; preds = %18
  %28 = load i32, ptr %11, align 4, !tbaa !4
  %29 = icmp ne i32 %28, 0
  br i1 %29, label %30, label %33

30:                                               ; preds = %27
  %31 = load i32, ptr %10, align 4, !tbaa !4
  %32 = icmp ne i32 %31, 0
  br label %33

33:                                               ; preds = %30, %27
  %34 = phi i1 [ true, %27 ], [ %32, %30 ]
  %35 = zext i1 %34 to i32
  %36 = icmp ne i32 %35, 0
  %37 = zext i1 %36 to i32
  %38 = call i32 @test_true(ptr noundef @.str.5, i32 noundef 544, ptr noundef @.str.86, i32 noundef %37)
  %39 = icmp ne i32 %38, 0
  br i1 %39, label %41, label %40

40:                                               ; preds = %33
  store i32 0, ptr %3, align 4
  store i32 1, ptr %12, align 4
  br label %140

41:                                               ; preds = %33
  %42 = load i64, ptr %5, align 8, !tbaa !19
  %43 = icmp slt i64 %42, 0
  br i1 %43, label %47, label %44

44:                                               ; preds = %41
  %45 = load i64, ptr %5, align 8, !tbaa !19
  %46 = icmp sge i64 %45, 3
  br label %47

47:                                               ; preds = %44, %41
  %48 = phi i1 [ true, %41 ], [ %46, %44 ]
  %49 = zext i1 %48 to i32
  store i32 %49, ptr %11, align 4, !tbaa !4
  %50 = load ptr, ptr %4, align 8, !tbaa !40
  %51 = call i32 @ossl_quic_wire_decode_frame_max_streams(ptr noundef %50, ptr noundef %6)
  %52 = load i32, ptr %11, align 4, !tbaa !4
  %53 = call i32 @test_int_eq(ptr noundef @.str.5, i32 noundef 550, ptr noundef @.str.87, ptr noundef @.str.85, i32 noundef %51, i32 noundef %52)
  %54 = icmp ne i32 %53, 0
  br i1 %54, label %56, label %55

55:                                               ; preds = %47
  store i32 0, ptr %3, align 4
  store i32 1, ptr %12, align 4
  br label %140

56:                                               ; preds = %47
  %57 = load i64, ptr %5, align 8, !tbaa !19
  %58 = icmp slt i64 %57, 0
  br i1 %58, label %62, label %59

59:                                               ; preds = %56
  %60 = load i64, ptr %5, align 8, !tbaa !19
  %61 = icmp sge i64 %60, 4
  br label %62

62:                                               ; preds = %59, %56
  %63 = phi i1 [ true, %56 ], [ %61, %59 ]
  %64 = zext i1 %63 to i32
  store i32 %64, ptr %11, align 4, !tbaa !4
  %65 = load ptr, ptr %4, align 8, !tbaa !40
  %66 = call i32 @ossl_quic_wire_peek_frame_header(ptr noundef %65, ptr noundef %9, ptr noundef %10)
  %67 = load i32, ptr %11, align 4, !tbaa !4
  %68 = call i32 @test_int_eq(ptr noundef @.str.5, i32 noundef 556, ptr noundef @.str.88, ptr noundef @.str.85, i32 noundef %66, i32 noundef %67)
  %69 = icmp ne i32 %68, 0
  br i1 %69, label %71, label %70

70:                                               ; preds = %62
  store i32 0, ptr %3, align 4
  store i32 1, ptr %12, align 4
  br label %140

71:                                               ; preds = %62
  %72 = load i32, ptr %11, align 4, !tbaa !4
  %73 = icmp ne i32 %72, 0
  br i1 %73, label %74, label %77

74:                                               ; preds = %71
  %75 = load i32, ptr %10, align 4, !tbaa !4
  %76 = icmp ne i32 %75, 0
  br label %77

77:                                               ; preds = %74, %71
  %78 = phi i1 [ true, %71 ], [ %76, %74 ]
  %79 = zext i1 %78 to i32
  %80 = icmp ne i32 %79, 0
  %81 = zext i1 %80 to i32
  %82 = call i32 @test_true(ptr noundef @.str.5, i32 noundef 559, ptr noundef @.str.86, i32 noundef %81)
  %83 = icmp ne i32 %82, 0
  br i1 %83, label %85, label %84

84:                                               ; preds = %77
  store i32 0, ptr %3, align 4
  store i32 1, ptr %12, align 4
  br label %140

85:                                               ; preds = %77
  %86 = load i64, ptr %5, align 8, !tbaa !19
  %87 = icmp slt i64 %86, 0
  %88 = zext i1 %87 to i32
  store i32 %88, ptr %11, align 4, !tbaa !4
  %89 = load ptr, ptr %4, align 8, !tbaa !40
  %90 = call i32 @ossl_quic_wire_decode_frame_max_streams(ptr noundef %89, ptr noundef %7)
  %91 = load i32, ptr %11, align 4, !tbaa !4
  %92 = call i32 @test_int_eq(ptr noundef @.str.5, i32 noundef 565, ptr noundef @.str.89, ptr noundef @.str.85, i32 noundef %90, i32 noundef %91)
  %93 = icmp ne i32 %92, 0
  br i1 %93, label %95, label %94

94:                                               ; preds = %85
  store i32 0, ptr %3, align 4
  store i32 1, ptr %12, align 4
  br label %140

95:                                               ; preds = %85
  %96 = load i64, ptr %5, align 8, !tbaa !19
  %97 = icmp slt i64 %96, 0
  br i1 %97, label %101, label %98

98:                                               ; preds = %95
  %99 = load i64, ptr %5, align 8, !tbaa !19
  %100 = icmp sge i64 %99, 3
  br i1 %100, label %101, label %106

101:                                              ; preds = %98, %95
  %102 = load i64, ptr %8, align 8, !tbaa !19
  %103 = call i32 @test_uint64_t_eq(ptr noundef @.str.5, i32 noundef 569, ptr noundef @.str.90, ptr noundef @.str.91, i64 noundef %102, i64 noundef 18)
  %104 = icmp ne i32 %103, 0
  br i1 %104, label %106, label %105

105:                                              ; preds = %101
  store i32 0, ptr %3, align 4
  store i32 1, ptr %12, align 4
  br label %140

106:                                              ; preds = %101, %98
  %107 = load i64, ptr %5, align 8, !tbaa !19
  %108 = icmp slt i64 %107, 0
  br i1 %108, label %112, label %109

109:                                              ; preds = %106
  %110 = load i64, ptr %5, align 8, !tbaa !19
  %111 = icmp sge i64 %110, 3
  br i1 %111, label %112, label %117

112:                                              ; preds = %109, %106
  %113 = load i64, ptr %6, align 8, !tbaa !19
  %114 = call i32 @test_uint64_t_eq(ptr noundef @.str.5, i32 noundef 573, ptr noundef @.str.92, ptr noundef @.str.55, i64 noundef %113, i64 noundef 4660)
  %115 = icmp ne i32 %114, 0
  br i1 %115, label %117, label %116

116:                                              ; preds = %112
  store i32 0, ptr %3, align 4
  store i32 1, ptr %12, align 4
  br label %140

117:                                              ; preds = %112, %109
  %118 = load i64, ptr %5, align 8, !tbaa !19
  %119 = icmp slt i64 %118, 0
  br i1 %119, label %123, label %120

120:                                              ; preds = %117
  %121 = load i64, ptr %5, align 8, !tbaa !19
  %122 = icmp sge i64 %121, 8
  br i1 %122, label %123, label %128

123:                                              ; preds = %120, %117
  %124 = load i64, ptr %9, align 8, !tbaa !19
  %125 = call i32 @test_uint64_t_eq(ptr noundef @.str.5, i32 noundef 577, ptr noundef @.str.93, ptr noundef @.str.94, i64 noundef %124, i64 noundef 19)
  %126 = icmp ne i32 %125, 0
  br i1 %126, label %128, label %127

127:                                              ; preds = %123
  store i32 0, ptr %3, align 4
  store i32 1, ptr %12, align 4
  br label %140

128:                                              ; preds = %123, %120
  %129 = load i64, ptr %5, align 8, !tbaa !19
  %130 = icmp slt i64 %129, 0
  br i1 %130, label %134, label %131

131:                                              ; preds = %128
  %132 = load i64, ptr %5, align 8, !tbaa !19
  %133 = icmp sge i64 %132, 8
  br i1 %133, label %134, label %139

134:                                              ; preds = %131, %128
  %135 = load i64, ptr %7, align 8, !tbaa !19
  %136 = call i32 @test_uint64_t_eq(ptr noundef @.str.5, i32 noundef 581, ptr noundef @.str.95, ptr noundef @.str.81, i64 noundef %135, i64 noundef 38785)
  %137 = icmp ne i32 %136, 0
  br i1 %137, label %139, label %138

138:                                              ; preds = %134
  store i32 0, ptr %3, align 4
  store i32 1, ptr %12, align 4
  br label %140

139:                                              ; preds = %134, %131
  store i32 1, ptr %3, align 4
  store i32 1, ptr %12, align 4
  br label %140

140:                                              ; preds = %139, %138, %127, %116, %105, %94, %84, %70, %55, %40, %26
  call void @llvm.lifetime.end.p0(i64 4, ptr %11) #5
  call void @llvm.lifetime.end.p0(i64 4, ptr %10) #5
  call void @llvm.lifetime.end.p0(i64 8, ptr %9) #5
  call void @llvm.lifetime.end.p0(i64 8, ptr %8) #5
  call void @llvm.lifetime.end.p0(i64 8, ptr %7) #5
  call void @llvm.lifetime.end.p0(i64 8, ptr %6) #5
  %141 = load i32, ptr %3, align 4
  ret i32 %141
}