; Function Attrs: nounwind uwtable
define internal range(i32 0, 2) i32 @encode_case_12_dec(ptr noundef %0, i64 noundef %1) #0 {
  %3 = alloca i64, align 8
  %4 = alloca i64, align 8
  %5 = alloca i64, align 8
  %6 = alloca i64, align 8
  %7 = alloca i32, align 4
  call void @llvm.lifetime.start.p0(i64 8, ptr nonnull %3) #4
  store i64 0, ptr %3, align 8, !tbaa !13
  call void @llvm.lifetime.start.p0(i64 8, ptr nonnull %4) #4
  store i64 0, ptr %4, align 8, !tbaa !13
  call void @llvm.lifetime.start.p0(i64 8, ptr nonnull %5) #4
  store i64 0, ptr %5, align 8, !tbaa !13
  call void @llvm.lifetime.start.p0(i64 8, ptr nonnull %6) #4
  store i64 0, ptr %6, align 8, !tbaa !13
  call void @llvm.lifetime.start.p0(i64 4, ptr nonnull %7) #4
  store i32 1, ptr %7, align 4, !tbaa !33
  %8 = icmp ne i64 %1, 0
  %9 = zext i1 %8 to i32
  %10 = call i32 @ossl_quic_wire_peek_frame_header(ptr noundef %0, ptr noundef nonnull %5, ptr noundef nonnull %7) #4
  %11 = call i32 @test_int_eq(ptr noundef nonnull @.str.5, i32 noundef 541, ptr noundef nonnull @.str.84, ptr noundef nonnull @.str.85, i32 noundef %10, i32 noundef %9) #4
  %.not = icmp eq i32 %11, 0
  br i1 %.not, label %51, label %12

12:                                               ; preds = %2
  %13 = load i32, ptr %7, align 4
  %14 = icmp ne i32 %13, 0
  %not. = xor i1 %8, true
  %15 = select i1 %not., i1 true, i1 %14
  %16 = zext i1 %15 to i32
  %17 = call i32 @test_true(ptr noundef nonnull @.str.5, i32 noundef 544, ptr noundef nonnull @.str.86, i32 noundef %16) #4
  %.not32 = icmp eq i32 %17, 0
  br i1 %.not32, label %51, label %18

18:                                               ; preds = %12
  %19 = icmp ugt i64 %1, 2
  %20 = zext i1 %19 to i32
  %21 = call i32 @ossl_quic_wire_decode_frame_max_streams(ptr noundef %0, ptr noundef nonnull %3) #4
  %22 = call i32 @test_int_eq(ptr noundef nonnull @.str.5, i32 noundef 550, ptr noundef nonnull @.str.87, ptr noundef nonnull @.str.85, i32 noundef %21, i32 noundef %20) #4
  %.not33 = icmp eq i32 %22, 0
  br i1 %.not33, label %51, label %23

23:                                               ; preds = %18
  %24 = icmp ugt i64 %1, 3
  %25 = zext i1 %24 to i32
  %26 = call i32 @ossl_quic_wire_peek_frame_header(ptr noundef %0, ptr noundef nonnull %6, ptr noundef nonnull %7) #4
  %27 = call i32 @test_int_eq(ptr noundef nonnull @.str.5, i32 noundef 556, ptr noundef nonnull @.str.88, ptr noundef nonnull @.str.85, i32 noundef %26, i32 noundef %25) #4
  %.not34 = icmp eq i32 %27, 0
  br i1 %.not34, label %51, label %28

28:                                               ; preds = %23
  %29 = load i32, ptr %7, align 4
  %30 = icmp ne i32 %29, 0
  %not.35 = xor i1 %24, true
  %31 = select i1 %not.35, i1 true, i1 %30
  %32 = zext i1 %31 to i32
  %33 = call i32 @test_true(ptr noundef nonnull @.str.5, i32 noundef 559, ptr noundef nonnull @.str.86, i32 noundef %32) #4
  %.not36 = icmp eq i32 %33, 0
  br i1 %.not36, label %51, label %34

34:                                               ; preds = %28
  %.lobit = lshr i64 %1, 63
  %35 = trunc nuw nsw i64 %.lobit to i32
  %36 = call i32 @ossl_quic_wire_decode_frame_max_streams(ptr noundef %0, ptr noundef nonnull %4) #4
  %37 = call i32 @test_int_eq(ptr noundef nonnull @.str.5, i32 noundef 565, ptr noundef nonnull @.str.89, ptr noundef nonnull @.str.85, i32 noundef %36, i32 noundef %35) #4
  %.not37 = icmp eq i32 %37, 0
  br i1 %.not37, label %51, label %38

38:                                               ; preds = %34
  br i1 %19, label %39, label %.critedge43

39:                                               ; preds = %38
  %40 = load i64, ptr %5, align 8, !tbaa !13
  %41 = call i32 @test_uint64_t_eq(ptr noundef nonnull @.str.5, i32 noundef 569, ptr noundef nonnull @.str.90, ptr noundef nonnull @.str.91, i64 noundef %40, i64 noundef 18) #4
  %.not38 = icmp eq i32 %41, 0
  br i1 %.not38, label %51, label %42

42:                                               ; preds = %39
  %43 = load i64, ptr %3, align 8, !tbaa !13
  %44 = call i32 @test_uint64_t_eq(ptr noundef nonnull @.str.5, i32 noundef 573, ptr noundef nonnull @.str.92, ptr noundef nonnull @.str.55, i64 noundef %43, i64 noundef 4660) #4
  %.not39 = icmp eq i32 %44, 0
  br i1 %.not39, label %51, label %.critedge

.critedge:                                        ; preds = %42
  %or.cond5 = icmp ugt i64 %1, 7
  br i1 %or.cond5, label %45, label %.critedge43

45:                                               ; preds = %.critedge
  %46 = load i64, ptr %6, align 8, !tbaa !13
  %47 = call i32 @test_uint64_t_eq(ptr noundef nonnull @.str.5, i32 noundef 577, ptr noundef nonnull @.str.93, ptr noundef nonnull @.str.94, i64 noundef %46, i64 noundef 19) #4
  %.not40 = icmp eq i32 %47, 0
  br i1 %.not40, label %51, label %48

48:                                               ; preds = %45
  %49 = load i64, ptr %4, align 8, !tbaa !13
  %50 = call i32 @test_uint64_t_eq(ptr noundef nonnull @.str.5, i32 noundef 581, ptr noundef nonnull @.str.95, ptr noundef nonnull @.str.81, i64 noundef %49, i64 noundef 38785) #4
  %.not41 = icmp eq i32 %50, 0
  br i1 %.not41, label %51, label %.critedge43

.critedge43:                                      ; preds = %38, %.critedge, %48
  br label %51

51:                                               ; preds = %48, %45, %42, %39, %34, %28, %23, %18, %12, %2, %.critedge43
  %.0 = phi i32 [ 1, %.critedge43 ], [ 0, %2 ], [ 0, %12 ], [ 0, %18 ], [ 0, %23 ], [ 0, %28 ], [ 0, %34 ], [ 0, %39 ], [ 0, %42 ], [ 0, %45 ], [ 0, %48 ]
  call void @llvm.lifetime.end.p0(i64 4, ptr nonnull %7) #4
  call void @llvm.lifetime.end.p0(i64 8, ptr nonnull %6) #4
  call void @llvm.lifetime.end.p0(i64 8, ptr nonnull %5) #4
  call void @llvm.lifetime.end.p0(i64 8, ptr nonnull %4) #4
  call void @llvm.lifetime.end.p0(i64 8, ptr nonnull %3) #4
  ret i32 %.0
}